target datalayout = "e-m:e-p270:32:32-p271:32:32-p272:64:64-i64:64-i128:128-f80:128-n8:16:32:64-S128"
target triple = "x86_64-pc-linux-gnu"

@.str.14 = private unnamed_addr constant [40 x i8] c"../openssl/test/endecoder_legacy_test.c\00", align 1
@.str.61 = private unnamed_addr constant [37 x i8] c"decoded_legacy_pkey = EVP_PKEY_new()\00", align 1
@.str.65 = private unnamed_addr constant [67 x i8] c"EVP_PKEY_assign(decoded_legacy_pkey, evp_type, decoded_legacy_key)\00", align 1
@.str.66 = private unnamed_addr constant [56 x i8] c"evp_pkey_eq(decoded_provided_pkey, decoded_legacy_pkey)\00", align 1
@.str.67 = private unnamed_addr constant [2 x i8] c"0\00", align 1
@.str.68 = private unnamed_addr constant [23 x i8] c"decoded_provided_pkey:\00", align 1
@bio_out = external global ptr, align 8
@.str.69 = private unnamed_addr constant [21 x i8] c"decoded_legacy_pkey:\00", align 1
@.str.75 = private unnamed_addr constant [87 x i8] c"ectx = OSSL_ENCODER_CTX_new_for_pkey(provided_pkey, selection, \22DER\22, structure, NULL)\00", align 1
@.str.76 = private unnamed_addr constant [4 x i8] c"DER\00", align 1
@.str.77 = private unnamed_addr constant [61 x i8] c"OSSL_ENCODER_to_data(ectx, &der_provided, &der_provided_len)\00", align 1
@.str.78 = private unnamed_addr constant [46 x i8] c"der_legacy_len = i2d(legacy_key, &der_legacy)\00", align 1
@.str.79 = private unnamed_addr constant [13 x i8] c"der_provided\00", align 1
@.str.80 = private unnamed_addr constant [11 x i8] c"der_legacy\00", align 1
@.str.81 = private unnamed_addr constant [111 x i8] c"dctx = OSSL_DECODER_CTX_new_for_pkey(&decoded_provided_pkey, \22DER\22, structure, keytype, selection, NULL, NULL)\00", align 1
@.str.82 = private unnamed_addr constant [117 x i8] c"(pder_provided = der_provided, tmp_size = der_provided_len, OSSL_DECODER_from_data(dctx, &pder_provided, &tmp_size))\00", align 1
@.str.83 = private unnamed_addr constant [95 x i8] c"(pder_legacy = der_legacy, decoded_legacy_key = d2i(NULL, &pder_legacy, (long)der_legacy_len))\00", align 1

; Function Attrs: nounwind uwtable
define internal i32 @test_DER(ptr noundef %0, i32 noundef %1, ptr noundef %2, ptr noundef %3, ptr noundef %4, ptr noundef %5, ptr noundef %6, ptr noundef %7, i32 noundef %8, ptr noundef %9) #0 {
  %11 = alloca ptr, align 8
  %12 = alloca i32, align 4
  %13 = alloca ptr, align 8
  %14 = alloca ptr, align 8
  %15 = alloca ptr, align 8
  %16 = alloca ptr, align 8
  %17 = alloca ptr, align 8
  %18 = alloca ptr, align 8
  %19 = alloca i32, align 4
  %20 = alloca ptr, align 8
  %21 = alloca i32, align 4
  %22 = alloca ptr, align 8
  %23 = alloca ptr, align 8
  %24 = alloca i64, align 8
  %25 = alloca ptr, align 8
  %26 = alloca ptr, align 8
  %27 = alloca i64, align 8
  %28 = alloca i64, align 8
  %29 = alloca ptr, align 8
  %30 = alloca ptr, align 8
  %31 = alloca ptr, align 8
  %32 = alloca ptr, align 8
  %33 = alloca ptr, align 8
  store ptr %0, ptr %11, align 8, !tbaa !19
  store i32 %1, ptr %12, align 4, !tbaa !26
  store ptr %2, ptr %13, align 8, !tbaa !31
  store ptr %3, ptr %14, align 8, !tbaa !31
  store ptr %4, ptr %15, align 8, !tbaa !31
  store ptr %5, ptr %16, align 8, !tbaa !31
  store ptr %6, ptr %17, align 8, !tbaa !31
  store ptr %7, ptr %18, align 8, !tbaa !21
  store i32 %8, ptr %19, align 4, !tbaa !26
  store ptr %9, ptr %20, align 8, !tbaa !19
  call void @llvm.lifetime.start.p0(i64 4, ptr %21) #4
  store i32 0, ptr %21, align 4, !tbaa !26
  call void @llvm.lifetime.start.p0(i64 8, ptr %22) #4
  store ptr null, ptr %22, align 8, !tbaa !19
  call void @llvm.lifetime.start.p0(i64 8, ptr %23) #4
  store ptr null, ptr %23, align 8, !tbaa !19
  call void @llvm.lifetime.start.p0(i64 8, ptr %24) #4
  store i64 0, ptr %24, align 8, !tbaa !4
  call void @llvm.lifetime.start.p0(i64 8, ptr %25) #4
  store ptr null, ptr %25, align 8, !tbaa !19
  call void @llvm.lifetime.start.p0(i64 8, ptr %26) #4
  store ptr null, ptr %26, align 8, !tbaa !19
  call void @llvm.lifetime.start.p0(i64 8, ptr %27) #4
  store i64 0, ptr %27, align 8, !tbaa !4
  call void @llvm.lifetime.start.p0(i64 8, ptr %28) #4
  call void @llvm.lifetime.start.p0(i64 8, ptr %29) #4
  store ptr null, ptr %29, align 8, !tbaa !61
  call void @llvm.lifetime.start.p0(i64 8, ptr %30) #4
  store ptr null, ptr %30, align 8, !tbaa !63
  call void @llvm.lifetime.start.p0(i64 8, ptr %31) #4
  store ptr null, ptr %31, align 8, !tbaa !31
  call void @llvm.lifetime.start.p0(i64 8, ptr %32) #4
  store ptr null, ptr %32, align 8, !tbaa !21
  call void @llvm.lifetime.start.p0(i64 8, ptr %33) #4
  store ptr null, ptr %33, align 8, !tbaa !21
  %34 = load ptr, ptr %18, align 8, !tbaa !21
  %35 = load i32, ptr %19, align 4, !tbaa !26
  %36 = load ptr, ptr %20, align 8, !tbaa !19
  %37 = call ptr @OSSL_ENCODER_CTX_new_for_pkey(ptr noundef %34, i32 noundef %35, ptr noundef @.str.76, ptr noundef %36, ptr noundef null)
  store ptr %37, ptr %29, align 8, !tbaa !61
  %38 = call i32 @test_ptr(ptr noundef @.str.14, i32 noundef 457, ptr noundef @.str.75, ptr noundef %37)
  %39 = icmp ne i32 %38, 0
  br i1 %39, label %40, label %61

40:                                               ; preds = %10
  %41 = load ptr, ptr %29, align 8, !tbaa !61
  %42 = call i32 @OSSL_ENCODER_to_data(ptr noundef %41, ptr noundef %25, ptr noundef %27)
  %43 = icmp ne i32 %42, 0
  %44 = zext i1 %43 to i32
  %45 = call i32 @test_true(ptr noundef @.str.14, i32 noundef 459, ptr noundef @.str.77, i32 noundef %44)
  %46 = icmp ne i32 %45, 0
  br i1 %46, label %47, label %61

47:                                               ; preds = %40
  %48 = load ptr, ptr %14, align 8, !tbaa !31
  %49 = load ptr, ptr %13, align 8, !tbaa !31
  %50 = call i32 %48(ptr noundef %49, ptr noundef %22)
  %51 = sext i32 %50 to i64
  store i64 %51, ptr %24, align 8, !tbaa !4
  %52 = call i32 @test_size_t_gt(ptr noundef @.str.14, i32 noundef 460, ptr noundef @.str.78, ptr noundef @.str.67, i64 noundef %51, i64 noundef 0)
  %53 = icmp ne i32 %52, 0
  br i1 %53, label %54, label %61

54:                                               ; preds = %47
  %55 = load ptr, ptr %25, align 8, !tbaa !19
  %56 = load i64, ptr %27, align 8, !tbaa !4
  %57 = load ptr, ptr %22, align 8, !tbaa !19
  %58 = load i64, ptr %24, align 8, !tbaa !4
  %59 = call i32 @test_mem_eq(ptr noundef @.str.14, i32 noundef 462, ptr noundef @.str.79, ptr noundef @.str.80, ptr noundef %55, i64 noundef %56, ptr noundef %57, i64 noundef %58)
  %60 = icmp ne i32 %59, 0
  br i1 %60, label %62, label %61

61:                                               ; preds = %54, %47, %40, %10
  br label %120

62:                                               ; preds = %54
  %63 = load ptr, ptr %15, align 8, !tbaa !31
  %64 = icmp ne ptr %63, null
  br i1 %64, label %65, label %119

65:                                               ; preds = %62
  %66 = call ptr @EVP_PKEY_new()
  store ptr %66, ptr %32, align 8, !tbaa !21
  %67 = call i32 @test_ptr(ptr noundef @.str.14, i32 noundef 468, ptr noundef @.str.61, ptr noundef %66)
  %68 = icmp ne i32 %67, 0
  br i1 %68, label %69, label %101

69:                                               ; preds = %65
  %70 = load ptr, ptr %20, align 8, !tbaa !19
  %71 = load ptr, ptr %11, align 8, !tbaa !19
  %72 = load i32, ptr %19, align 4, !tbaa !26
  %73 = call ptr @OSSL_DECODER_CTX_new_for_pkey(ptr noundef %33, ptr noundef @.str.76, ptr noundef %70, ptr noundef %71, i32 noundef %72, ptr noundef null, ptr noundef null)
  store ptr %73, ptr %30, align 8, !tbaa !63
  %74 = call i32 @test_ptr(ptr noundef @.str.14, i32 noundef 473, ptr noundef @.str.81, ptr noundef %73)
  %75 = icmp ne i32 %74, 0
  br i1 %75, label %76, label %101

76:                                               ; preds = %69
  %77 = load ptr, ptr %25, align 8, !tbaa !19
  store ptr %77, ptr %26, align 8, !tbaa !19
  %78 = load i64, ptr %27, align 8, !tbaa !4
  store i64 %78, ptr %28, align 8, !tbaa !4
  %79 = load ptr, ptr %30, align 8, !tbaa !63
  %80 = call i32 @OSSL_DECODER_from_data(ptr noundef %79, ptr noundef %26, ptr noundef %28)
  %81 = icmp ne i32 %80, 0
  %82 = zext i1 %81 to i32
  %83 = call i32 @test_true(ptr noundef @.str.14, i32 noundef 477, ptr noundef @.str.82, i32 noundef %82)
  %84 = icmp ne i32 %83, 0
  br i1 %84, label %85, label %101

85:                                               ; preds = %76
  %86 = load ptr, ptr %22, align 8, !tbaa !19
  store ptr %86, ptr %23, align 8, !tbaa !19
  %87 = load ptr, ptr %15, align 8, !tbaa !31
  %88 = load i64, ptr %24, align 8, !tbaa !4
  %89 = call ptr %87(ptr noundef null, ptr noundef %23, i64 noundef %88)
  store ptr %89, ptr %31, align 8, !tbaa !31
  %90 = call i32 @test_ptr(ptr noundef @.str.14, i32 noundef 480, ptr noundef @.str.83, ptr noundef %89)
  %91 = icmp ne i32 %90, 0
  br i1 %91, label %92, label %101

92:                                               ; preds = %85
  %93 = load ptr, ptr %32, align 8, !tbaa !21
  %94 = load i32, ptr %12, align 4, !tbaa !26
  %95 = load ptr, ptr %31, align 8, !tbaa !31
  %96 = call i32 @EVP_PKEY_assign(ptr noundef %93, i32 noundef %94, ptr noundef %95)
  %97 = icmp ne i32 %96, 0
  %98 = zext i1 %97 to i32
  %99 = call i32 @test_true(ptr noundef @.str.14, i32 noundef 482, ptr noundef @.str.65, i32 noundef %98)
  %100 = icmp ne i32 %99, 0
  br i1 %100, label %102, label %101

101:                                              ; preds = %92, %85, %76, %69, %65
  br label %120

102:                                              ; preds = %92
  %103 = load ptr, ptr %16, align 8, !tbaa !31
  %104 = load ptr, ptr %33, align 8, !tbaa !21
  %105 = load ptr, ptr %32, align 8, !tbaa !21
  %106 = call i32 %103(ptr noundef %104, ptr noundef %105)
  %107 = call i32 @test_int_gt(ptr noundef @.str.14, i32 noundef 486, ptr noundef @.str.66, ptr noundef @.str.67, i32 noundef %106, i32 noundef 0)
  %108 = icmp ne i32 %107, 0
  br i1 %108, label %118, label %109

109:                                              ; preds = %102
  call void (ptr, i32, ptr, ...) @test_info(ptr noundef @.str.14, i32 noundef 487, ptr noundef @.str.68)
  %110 = load ptr, ptr %17, align 8, !tbaa !31
  %111 = load ptr, ptr @bio_out, align 8, !tbaa !59
  %112 = load ptr, ptr %33, align 8, !tbaa !21
  %113 = call i32 %110(ptr noundef %111, ptr noundef %112, i32 noundef 0, ptr noundef null)
  call void (ptr, i32, ptr, ...) @test_info(ptr noundef @.str.14, i32 noundef 489, ptr noundef @.str.69)
  %114 = load ptr, ptr %17, align 8, !tbaa !31
  %115 = load ptr, ptr @bio_out, align 8, !tbaa !59
  %116 = load ptr, ptr %32, align 8, !tbaa !21
  %117 = call i32 %114(ptr noundef %115, ptr noundef %116, i32 noundef 0, ptr noundef null)
  br label %118

118:                                              ; preds = %109, %102
  br label %119

119:                                              ; preds = %118, %62
  store i32 1, ptr %21, align 4, !tbaa !26
  br label %120

120:                                              ; preds = %119, %101, %61
  %121 = load ptr, ptr %32, align 8, !tbaa !21
  call void @EVP_PKEY_free(ptr noundef %121)
  %122 = load ptr, ptr %33, align 8, !tbaa !21
  call void @EVP_PKEY_free(ptr noundef %122)
  %123 = load ptr, ptr %29, align 8, !tbaa !61
  call void @OSSL_ENCODER_CTX_free(ptr noundef %123)
  %124 = load ptr, ptr %30, align 8, !tbaa !63
  call void @OSSL_DECODER_CTX_free(ptr noundef %124)
  %125 = load ptr, ptr %25, align 8, !tbaa !19
  call void @CRYPTO_free(ptr noundef %125, ptr noundef @.str.14, i32 noundef 499)
  %126 = load ptr, ptr %22, align 8, !tbaa !19
  call void @CRYPTO_free(ptr noundef %126, ptr noundef @.str.14, i32 noundef 500)
  %127 = load i32, ptr %21, align 4, !tbaa !26
  call void @llvm.lifetime.end.p0(i64 8, ptr %33) #4
  call void @llvm.lifetime.end.p0(i64 8, ptr %32) #4
  call void @llvm.lifetime.end.p0(i64 8, ptr %31) #4
  call void @llvm.lifetime.end.p0(i64 8, ptr %30) #4
  call void @llvm.lifetime.end.p0(i64 8, ptr %29) #4
  call void @llvm.lifetime.end.p0(i64 8, ptr %28) #4
  call void @llvm.lifetime.end.p0(i64 8, ptr %27) #4
  call void @llvm.lifetime.end.p0(i64 8, ptr %26) #4
  call void @llvm.lifetime.end.p0(i64 8, ptr %25) #4
  call void @llvm.lifetime.end.p0(i64 8, ptr %24) #4
  call void @llvm.lifetime.end.p0(i64 8, ptr %23) #4
  call void @llvm.lifetime.end.p0(i64 8, ptr %22) #4
  call void @llvm.lifetime.end.p0(i64 4, ptr %21) #4
  ret i32 %127
}