; Function Attrs: nounwind uwtable
define internal fastcc range(i32 0, 2) i32 @test_DER(ptr noundef %0, i32 noundef %1, ptr noundef %2, ptr noundef readonly captures(none) %3, ptr noundef readonly captures(address_is_null) %4, ptr noundef readonly captures(none) %5, ptr noundef readonly captures(none) %6, ptr noundef %7, i32 noundef range(i32 132, 136) %8, ptr noundef %9) unnamed_addr #1 {
  %11 = alloca ptr, align 8
  %12 = alloca ptr, align 8
  %13 = alloca ptr, align 8
  %14 = alloca ptr, align 8
  %15 = alloca i64, align 8
  %16 = alloca i64, align 8
  %17 = alloca ptr, align 8
  call void @llvm.lifetime.start.p0(i64 8, ptr nonnull %11) #5
  store ptr null, ptr %11, align 8, !tbaa !26
  call void @llvm.lifetime.start.p0(i64 8, ptr nonnull %12) #5
  store ptr null, ptr %12, align 8, !tbaa !26
  call void @llvm.lifetime.start.p0(i64 8, ptr nonnull %13) #5
  store ptr null, ptr %13, align 8, !tbaa !26
  call void @llvm.lifetime.start.p0(i64 8, ptr nonnull %14) #5
  store ptr null, ptr %14, align 8, !tbaa !26
  call void @llvm.lifetime.start.p0(i64 8, ptr nonnull %15) #5
  store i64 0, ptr %15, align 8, !tbaa !53
  call void @llvm.lifetime.start.p0(i64 8, ptr nonnull %16) #5
  call void @llvm.lifetime.start.p0(i64 8, ptr nonnull %17) #5
  store ptr null, ptr %17, align 8, !tbaa !15
  %18 = tail call ptr @OSSL_ENCODER_CTX_new_for_pkey(ptr noundef %7, i32 noundef %8, ptr noundef nonnull @.str.76, ptr noundef %9, ptr noundef null) #5
  %19 = tail call i32 @test_ptr(ptr noundef nonnull @.str.14, i32 noundef 457, ptr noundef nonnull @.str.75, ptr noundef %18) #5
  %.not = icmp eq i32 %19, 0
  br i1 %.not, label %67, label %20

20:                                               ; preds = %10
  %21 = call i32 @OSSL_ENCODER_to_data(ptr noundef %18, ptr noundef nonnull %13, ptr noundef nonnull %15) #5
  %22 = icmp ne i32 %21, 0
  %23 = zext i1 %22 to i32
  %24 = call i32 @test_true(ptr noundef nonnull @.str.14, i32 noundef 459, ptr noundef nonnull @.str.77, i32 noundef %23) #5
  %.not29 = icmp eq i32 %24, 0
  br i1 %.not29, label %67, label %25

25:                                               ; preds = %20
  %26 = call i32 %3(ptr noundef %2, ptr noundef nonnull %11) #5
  %27 = sext i32 %26 to i64
  %28 = call i32 @test_size_t_gt(ptr noundef nonnull @.str.14, i32 noundef 460, ptr noundef nonnull @.str.78, ptr noundef nonnull @.str.67, i64 noundef %27, i64 noundef 0) #5
  %.not30 = icmp eq i32 %28, 0
  br i1 %.not30, label %67, label %29

29:                                               ; preds = %25
  %30 = load ptr, ptr %13, align 8, !tbaa !26
  %31 = load i64, ptr %15, align 8, !tbaa !53
  %32 = load ptr, ptr %11, align 8, !tbaa !26
  %33 = call i32 @test_mem_eq(ptr noundef nonnull @.str.14, i32 noundef 462, ptr noundef nonnull @.str.79, ptr noundef nonnull @.str.80, ptr noundef %30, i64 noundef %31, ptr noundef %32, i64 noundef %27) #5
  %.not31 = icmp eq i32 %33, 0
  br i1 %.not31, label %67, label %34

34:                                               ; preds = %29
  %.not32 = icmp eq ptr %4, null
  br i1 %.not32, label %67, label %35

35:                                               ; preds = %34
  %36 = call ptr @EVP_PKEY_new() #5
  %37 = call i32 @test_ptr(ptr noundef nonnull @.str.14, i32 noundef 468, ptr noundef nonnull @.str.61, ptr noundef %36) #5
  %.not33 = icmp eq i32 %37, 0
  br i1 %.not33, label %67, label %38

38:                                               ; preds = %35
  %39 = call ptr @OSSL_DECODER_CTX_new_for_pkey(ptr noundef nonnull %17, ptr noundef nonnull @.str.76, ptr noundef %9, ptr noundef %0, i32 noundef %8, ptr noundef null, ptr noundef null) #5
  %40 = call i32 @test_ptr(ptr noundef nonnull @.str.14, i32 noundef 473, ptr noundef nonnull @.str.81, ptr noundef %39) #5
  %.not34 = icmp eq i32 %40, 0
  br i1 %.not34, label %67, label %41

41:                                               ; preds = %38
  %42 = load ptr, ptr %13, align 8, !tbaa !26
  store ptr %42, ptr %14, align 8, !tbaa !26
  %43 = load i64, ptr %15, align 8, !tbaa !53
  store i64 %43, ptr %16, align 8, !tbaa !53
  %44 = call i32 @OSSL_DECODER_from_data(ptr noundef %39, ptr noundef nonnull %14, ptr noundef nonnull %16) #5
  %45 = icmp ne i32 %44, 0
  %46 = zext i1 %45 to i32
  %47 = call i32 @test_true(ptr noundef nonnull @.str.14, i32 noundef 477, ptr noundef nonnull @.str.82, i32 noundef %46) #5
  %.not35 = icmp eq i32 %47, 0
  br i1 %.not35, label %67, label %48

48:                                               ; preds = %41
  %49 = load ptr, ptr %11, align 8, !tbaa !26
  store ptr %49, ptr %12, align 8, !tbaa !26
  %50 = call ptr %4(ptr noundef null, ptr noundef nonnull %12, i64 noundef %27) #5
  %51 = call i32 @test_ptr(ptr noundef nonnull @.str.14, i32 noundef 480, ptr noundef nonnull @.str.83, ptr noundef %50) #5
  %.not36 = icmp eq i32 %51, 0
  br i1 %.not36, label %67, label %52

52:                                               ; preds = %48
  %53 = call i32 @EVP_PKEY_assign(ptr noundef %36, i32 noundef %1, ptr noundef %50) #5
  %54 = icmp ne i32 %53, 0
  %55 = zext i1 %54 to i32
  %56 = call i32 @test_true(ptr noundef nonnull @.str.14, i32 noundef 482, ptr noundef nonnull @.str.65, i32 noundef %55) #5
  %.not37 = icmp eq i32 %56, 0
  br i1 %.not37, label %67, label %57

57:                                               ; preds = %52
  %58 = load ptr, ptr %17, align 8, !tbaa !15
  %59 = call i32 %5(ptr noundef %58, ptr noundef %36) #5, !callees !51
  %60 = call i32 @test_int_gt(ptr noundef nonnull @.str.14, i32 noundef 486, ptr noundef nonnull @.str.66, ptr noundef nonnull @.str.67, i32 noundef %59, i32 noundef 0) #5
  %.not38 = icmp eq i32 %60, 0
  br i1 %.not38, label %61, label %67

61:                                               ; preds = %57
  call void (ptr, i32, ptr, ...) @test_info(ptr noundef nonnull @.str.14, i32 noundef 487, ptr noundef nonnull @.str.68) #5
  %62 = load ptr, ptr @bio_out, align 8, !tbaa !28
  %63 = load ptr, ptr %17, align 8, !tbaa !15
  %64 = call i32 %6(ptr noundef %62, ptr noundef %63, i32 noundef 0, ptr noundef null) #5, !callees !54
  call void (ptr, i32, ptr, ...) @test_info(ptr noundef nonnull @.str.14, i32 noundef 489, ptr noundef nonnull @.str.69) #5
  %65 = load ptr, ptr @bio_out, align 8, !tbaa !28
  %66 = call i32 %6(ptr noundef %65, ptr noundef %36, i32 noundef 0, ptr noundef null) #5, !callees !54
  br label %67

67:                                               ; preds = %34, %61, %57, %35, %38, %41, %48, %52, %10, %20, %25, %29
  %.027 = phi i32 [ 0, %52 ], [ 0, %48 ], [ 0, %41 ], [ 0, %38 ], [ 0, %35 ], [ 0, %29 ], [ 0, %25 ], [ 0, %20 ], [ 0, %10 ], [ 1, %57 ], [ 1, %61 ], [ 1, %34 ]
  %.025 = phi ptr [ %39, %52 ], [ %39, %48 ], [ %39, %41 ], [ %39, %38 ], [ null, %35 ], [ null, %29 ], [ null, %25 ], [ null, %20 ], [ null, %10 ], [ %39, %57 ], [ %39, %61 ], [ null, %34 ]
  %.0 = phi ptr [ %36, %52 ], [ %36, %48 ], [ %36, %41 ], [ %36, %38 ], [ %36, %35 ], [ null, %29 ], [ null, %25 ], [ null, %20 ], [ null, %10 ], [ %36, %57 ], [ %36, %61 ], [ null, %34 ]
  call void @EVP_PKEY_free(ptr noundef %.0) #5
  %68 = load ptr, ptr %17, align 8, !tbaa !15
  call void @EVP_PKEY_free(ptr noundef %68) #5
  call void @OSSL_ENCODER_CTX_free(ptr noundef %18) #5
  call void @OSSL_DECODER_CTX_free(ptr noundef %.025) #5
  %69 = load ptr, ptr %13, align 8, !tbaa !26
  call void @CRYPTO_free(ptr noundef %69, ptr noundef nonnull @.str.14, i32 noundef 499) #5
  %70 = load ptr, ptr %11, align 8, !tbaa !26
  call void @CRYPTO_free(ptr noundef %70, ptr noundef nonnull @.str.14, i32 noundef 500) #5
  call void @llvm.lifetime.end.p0(i64 8, ptr nonnull %17) #5
  call void @llvm.lifetime.end.p0(i64 8, ptr nonnull %16) #5
  call void @llvm.lifetime.end.p0(i64 8, ptr nonnull %15) #5
  call void @llvm.lifetime.end.p0(i64 8, ptr nonnull %14) #5
  call void @llvm.lifetime.end.p0(i64 8, ptr nonnull %13) #5
  call void @llvm.lifetime.end.p0(i64 8, ptr nonnull %12) #5
  call void @llvm.lifetime.end.p0(i64 8, ptr nonnull %11) #5
  ret i32 %.027
}